target datalayout = "e-m:e-p270:32:32-p271:32:32-p272:64:64-i64:64-i128:128-f80:128-n8:16:32:64-S128"
target triple = "x86_64-unknown-linux-gnu"

%"struct.std::atomic.12" = type { %"struct.std::__atomic_base.13" }
%"struct.std::__atomic_base.13" = type { i64 }
%"struct.std::atomic" = type { %"struct.std::__atomic_base" }
%"struct.std::__atomic_base" = type { i32 }
%"class.facebook::velox::cache::AsyncDataCache" = type <{ %"class.facebook::velox::memory::Cache", ptr, %"class.std::unique_ptr.16", %"class.std::vector.24", %"struct.std::atomic", [4 x i8], %"struct.std::atomic.12", %"struct.std::atomic.12", %"struct.std::atomic.12", %"struct.std::atomic.12", i64, %"struct.facebook::velox::cache::CacheStats", %"class.std::function", i32, %"struct.std::atomic.29", [2 x i8], %"struct.std::atomic", [4 x i8] }>
%"class.facebook::velox::memory::Cache" = type { ptr }
%"class.std::unique_ptr.16" = type { %"struct.std::__uniq_ptr_data.17" }
%"struct.std::__uniq_ptr_data.17" = type { %"class.std::__uniq_ptr_impl.18" }
%"class.std::__uniq_ptr_impl.18" = type { %"class.std::tuple.19" }
%"class.std::tuple.19" = type { %"struct.std::_Tuple_impl.20" }
%"struct.std::_Tuple_impl.20" = type { %"struct.std::_Head_base.23" }
%"struct.std::_Head_base.23" = type { ptr }
%"class.std::vector.24" = type { %"struct.std::_Vector_base.25" }
%"struct.std::_Vector_base.25" = type { %"struct.std::_Vector_base<std::unique_ptr<facebook::velox::cache::CacheShard>, std::allocator<std::unique_ptr<facebook::velox::cache::CacheShard>>>::_Vector_impl" }
%"struct.std::_Vector_base<std::unique_ptr<facebook::velox::cache::CacheShard>, std::allocator<std::unique_ptr<facebook::velox::cache::CacheShard>>>::_Vector_impl" = type { %"struct.std::_Vector_base<std::unique_ptr<facebook::velox::cache::CacheShard>, std::allocator<std::unique_ptr<facebook::velox::cache::CacheShard>>>::_Vector_impl_data" }
%"struct.std::_Vector_base<std::unique_ptr<facebook::velox::cache::CacheShard>, std::allocator<std::unique_ptr<facebook::velox::cache::CacheShard>>>::_Vector_impl_data" = type { ptr, ptr, ptr }
%"struct.facebook::velox::cache::CacheStats" = type { i64, i64, i64, i64, i32, i32, i32, i32, i32, i64, i64, i64, i64, i64, i64, i64, i64, i64, i64, i64, %"class.std::shared_ptr" }
%"class.std::shared_ptr" = type { %"class.std::__shared_ptr" }
%"class.std::__shared_ptr" = type { ptr, %"class.std::__shared_count" }
%"class.std::__shared_count" = type { ptr }
%"class.std::function" = type { %"class.std::_Function_base", ptr }
%"class.std::_Function_base" = type { %"union.std::_Any_data", ptr }
%"union.std::_Any_data" = type { %"union.std::_Nocopy_types" }
%"union.std::_Nocopy_types" = type { { i64, i64 } }
%"struct.std::atomic.29" = type { %"struct.std::__atomic_base.30" }
%"struct.std::__atomic_base.30" = type { i16 }
%"class.facebook::velox::cache::CachePin" = type { ptr }
%"struct.facebook::velox::cache::RawFileCacheKey" = type { i64, i64 }
%"class.std::unique_ptr.130" = type { %"struct.std::__uniq_ptr_data.131" }
%"struct.std::__uniq_ptr_data.131" = type { %"class.std::__uniq_ptr_impl.132" }
%"class.std::__uniq_ptr_impl.132" = type { %"class.std::tuple.133" }
%"class.std::tuple.133" = type { %"struct.std::_Tuple_impl.134" }
%"struct.std::_Tuple_impl.134" = type { %"struct.std::_Head_base.137" }
%"struct.std::_Head_base.137" = type { ptr }
%"struct.std::hash" = type { i8 }

; Function Attrs: mustprogress nounwind uwtable
define linkonce_odr noundef nonnull align 8 dereferenceable(8) ptr @_ZNSt10_Head_baseILm0EPN8facebook5velox5cache10CacheShardELb0EE7_M_headERKS5_(ptr noundef nonnull align 8 dereferenceable(8) %__b) #1 comdat align 2 {
entry:
  %__b.addr = alloca ptr, align 8
  store ptr %__b, ptr %__b.addr, align 8
  %0 = load ptr, ptr %__b.addr, align 8
  %_M_head_impl = getelementptr inbounds %"struct.std::_Head_base.137", ptr %0, i32 0, i32 0
  ret ptr %_M_head_impl
}

; Function Attrs: mustprogress nounwind uwtable
define linkonce_odr noundef nonnull align 8 dereferenceable(8) ptr @_ZNSt11_Tuple_implILm0EJPN8facebook5velox5cache10CacheShardESt14default_deleteIS3_EEE7_M_headERKS7_(ptr noundef nonnull align 8 dereferenceable(8) %__t) #1 comdat align 2 {
entry:
  %__t.addr = alloca ptr, align 8
  store ptr %__t, ptr %__t.addr, align 8
  %0 = load ptr, ptr %__t.addr, align 8
  %call = call noundef nonnull align 8 dereferenceable(8) ptr @_ZNSt10_Head_baseILm0EPN8facebook5velox5cache10CacheShardELb0EE7_M_headERKS5_(ptr noundef nonnull align 8 dereferenceable(8) %0) #12
  ret ptr %call
}

; Function Attrs: mustprogress nounwind uwtable
define linkonce_odr noundef nonnull align 8 dereferenceable(8) ptr @_ZSt12__get_helperILm0EPN8facebook5velox5cache10CacheShardEJSt14default_deleteIS3_EEERKT0_RKSt11_Tuple_implIXT_EJS7_DpT1_EE(ptr noundef nonnull align 8 dereferenceable(8) %__t) #1 comdat {
entry:
  %__t.addr = alloca ptr, align 8
  store ptr %__t, ptr %__t.addr, align 8
  %0 = load ptr, ptr %__t.addr, align 8
  %call = call noundef nonnull align 8 dereferenceable(8) ptr @_ZNSt11_Tuple_implILm0EJPN8facebook5velox5cache10CacheShardESt14default_deleteIS3_EEE7_M_headERKS7_(ptr noundef nonnull align 8 dereferenceable(8) %0) #12
  ret ptr %call
}

; Function Attrs: mustprogress nounwind uwtable
define linkonce_odr noundef nonnull align 8 dereferenceable(8) ptr @_ZSt3getILm0EJPN8facebook5velox5cache10CacheShardESt14default_deleteIS3_EEERKNSt13tuple_elementIXT_ESt5tupleIJDpT0_EEE4typeERKSB_(ptr noundef nonnull align 8 dereferenceable(8) %__t) #1 comdat {
entry:
  %__t.addr = alloca ptr, align 8
  store ptr %__t, ptr %__t.addr, align 8
  %0 = load ptr, ptr %__t.addr, align 8
  %call = call noundef nonnull align 8 dereferenceable(8) ptr @_ZSt12__get_helperILm0EPN8facebook5velox5cache10CacheShardEJSt14default_deleteIS3_EEERKT0_RKSt11_Tuple_implIXT_EJS7_DpT1_EE(ptr noundef nonnull align 8 dereferenceable(8) %0) #12
  ret ptr %call
}

; Function Attrs: mustprogress nounwind uwtable
define linkonce_odr noundef ptr @_ZNKSt15__uniq_ptr_implIN8facebook5velox5cache10CacheShardESt14default_deleteIS3_EE6_M_ptrEv(ptr noundef nonnull align 8 dereferenceable(8) %this) #1 comdat align 2 {
entry:
  %this.addr = alloca ptr, align 8
  store ptr %this, ptr %this.addr, align 8
  %this1 = load ptr, ptr %this.addr, align 8
  %_M_t = getelementptr inbounds %"class.std::__uniq_ptr_impl.132", ptr %this1, i32 0, i32 0
  %call = call noundef nonnull align 8 dereferenceable(8) ptr @_ZSt3getILm0EJPN8facebook5velox5cache10CacheShardESt14default_deleteIS3_EEERKNSt13tuple_elementIXT_ESt5tupleIJDpT0_EEE4typeERKSB_(ptr noundef nonnull align 8 dereferenceable(8) %_M_t) #12
  %0 = load ptr, ptr %call, align 8
  ret ptr %0
}

; Function Attrs: mustprogress nounwind uwtable
define linkonce_odr noundef ptr @_ZNKSt10unique_ptrIN8facebook5velox5cache10CacheShardESt14default_deleteIS3_EE3getEv(ptr noundef nonnull align 8 dereferenceable(8) %this) #1 comdat align 2 {
entry:
  %this.addr = alloca ptr, align 8
  store ptr %this, ptr %this.addr, align 8
  %this1 = load ptr, ptr %this.addr, align 8
  %_M_t = getelementptr inbounds %"class.std::unique_ptr.130", ptr %this1, i32 0, i32 0
  %call = call noundef ptr @_ZNKSt15__uniq_ptr_implIN8facebook5velox5cache10CacheShardESt14default_deleteIS3_EE6_M_ptrEv(ptr noundef nonnull align 8 dereferenceable(8) %_M_t) #12
  ret ptr %call
}

; Function Attrs: mustprogress nounwind uwtable
define linkonce_odr noundef i64 @_ZN8facebook5velox4bits7hashMixEmm(i64 noundef %upper, i64 noundef %lower) #1 comdat {
entry:
  %upper.addr = alloca i64, align 8
  %lower.addr = alloca i64, align 8
  %kMul = alloca i64, align 8
  %a = alloca i64, align 8
  %b = alloca i64, align 8
  store i64 %upper, ptr %upper.addr, align 8
  store i64 %lower, ptr %lower.addr, align 8
  store i64 -7070675565921424023, ptr %kMul, align 8
  %0 = load i64, ptr %lower.addr, align 8
  %1 = load i64, ptr %upper.addr, align 8
  %xor = xor i64 %0, %1
  %mul = mul i64 %xor, -7070675565921424023
  store i64 %mul, ptr %a, align 8
  %2 = load i64, ptr %a, align 8
  %shr = lshr i64 %2, 47
  %3 = load i64, ptr %a, align 8
  %xor1 = xor i64 %3, %shr
  store i64 %xor1, ptr %a, align 8
  %4 = load i64, ptr %upper.addr, align 8
  %5 = load i64, ptr %a, align 8
  %xor2 = xor i64 %4, %5
  %mul3 = mul i64 %xor2, -7070675565921424023
  store i64 %mul3, ptr %b, align 8
  %6 = load i64, ptr %b, align 8
  %shr4 = lshr i64 %6, 47
  %7 = load i64, ptr %b, align 8
  %xor5 = xor i64 %7, %shr4
  store i64 %xor5, ptr %b, align 8
  %8 = load i64, ptr %b, align 8
  %mul6 = mul i64 %8, -7070675565921424023
  store i64 %mul6, ptr %b, align 8
  %9 = load i64, ptr %b, align 8
  ret i64 %9
}

; Function Attrs: mustprogress nounwind uwtable
define linkonce_odr noundef ptr @_ZNKSt10unique_ptrIN8facebook5velox5cache10CacheShardESt14default_deleteIS3_EEptEv(ptr noundef nonnull align 8 dereferenceable(8) %this) #1 comdat align 2 {
entry:
  %this.addr = alloca ptr, align 8
  store ptr %this, ptr %this.addr, align 8
  %this1 = load ptr, ptr %this.addr, align 8
  %call = call noundef ptr @_ZNKSt10unique_ptrIN8facebook5velox5cache10CacheShardESt14default_deleteIS3_EE3getEv(ptr noundef nonnull align 8 dereferenceable(8) %this1) #12
  ret ptr %call
}

; Function Attrs: mustprogress nounwind uwtable
define linkonce_odr noundef nonnull align 8 dereferenceable(8) ptr @_ZNSt6vectorISt10unique_ptrIN8facebook5velox5cache10CacheShardESt14default_deleteIS4_EESaIS7_EEixEm(ptr noundef nonnull align 8 dereferenceable(24) %this, i64 noundef %__n) #1 comdat align 2 {
entry:
  %this.addr = alloca ptr, align 8
  %__n.addr = alloca i64, align 8
  store ptr %this, ptr %this.addr, align 8
  store i64 %__n, ptr %__n.addr, align 8
  %this1 = load ptr, ptr %this.addr, align 8
  %_M_impl = getelementptr inbounds %"struct.std::_Vector_base.25", ptr %this1, i32 0, i32 0
  %_M_start = getelementptr inbounds %"struct.std::_Vector_base<std::unique_ptr<facebook::velox::cache::CacheShard>, std::allocator<std::unique_ptr<facebook::velox::cache::CacheShard>>>::_Vector_impl_data", ptr %_M_impl, i32 0, i32 0
  %0 = load ptr, ptr %_M_start, align 8
  %1 = load i64, ptr %__n.addr, align 8
  %add.ptr = getelementptr inbounds %"class.std::unique_ptr.130", ptr %0, i64 %1
  ret ptr %add.ptr
}

; Function Attrs: mustprogress nounwind uwtable
define linkonce_odr noundef i64 @_ZNKSt4hashIN8facebook5velox5cache15RawFileCacheKeyEEclERKS3_(ptr noundef nonnull align 1 dereferenceable(1) %this, ptr noundef nonnull align 8 dereferenceable(16) %key) #1 comdat align 2 {
entry:
  %this.addr = alloca ptr, align 8
  %key.addr = alloca ptr, align 8
  store ptr %this, ptr %this.addr, align 8
  store ptr %key, ptr %key.addr, align 8
  %0 = load ptr, ptr %key.addr, align 8
  %fileNum = getelementptr inbounds %"struct.facebook::velox::cache::RawFileCacheKey", ptr %0, i32 0, i32 0
  %1 = load i64, ptr %fileNum, align 8
  %2 = load ptr, ptr %key.addr, align 8
  %offset = getelementptr inbounds %"struct.facebook::velox::cache::RawFileCacheKey", ptr %2, i32 0, i32 1
  %3 = load i64, ptr %offset, align 8
  %call = call noundef i64 @_ZN8facebook5velox4bits7hashMixEmm(i64 noundef %1, i64 noundef %3) #12
  ret i64 %call
}

; Function Attrs: mustprogress uwtable
define void @_ZN8facebook5velox5cache14AsyncDataCache12findOrCreateENS1_15RawFileCacheKeyEmPN5folly10SemiFutureIbEE(ptr noalias sret(%"class.facebook::velox::cache::CachePin") align 8 %agg.result, ptr noundef nonnull align 8 dereferenceable(300) %this, i64 %key.coerce0, i64 %key.coerce1, i64 noundef %size, ptr noundef %wait) #0 align 2 {
entry:
  %result.ptr = alloca ptr, align 8
  %key = alloca %"struct.facebook::velox::cache::RawFileCacheKey", align 8
  %this.addr = alloca ptr, align 8
  %size.addr = alloca i64, align 8
  %wait.addr = alloca ptr, align 8
  %shard = alloca i32, align 4
  %ref.tmp = alloca %"struct.std::hash", align 1
  %agg.tmp = alloca %"struct.facebook::velox::cache::RawFileCacheKey", align 8
  store ptr %agg.result, ptr %result.ptr, align 8
  %0 = getelementptr inbounds { i64, i64 }, ptr %key, i32 0, i32 0
  store i64 %key.coerce0, ptr %0, align 8
  %1 = getelementptr inbounds { i64, i64 }, ptr %key, i32 0, i32 1
  store i64 %key.coerce1, ptr %1, align 8
  store ptr %this, ptr %this.addr, align 8
  store i64 %size, ptr %size.addr, align 8
  store ptr %wait, ptr %wait.addr, align 8
  %this1 = load ptr, ptr %this.addr, align 8
  %call = call noundef i64 @_ZNKSt4hashIN8facebook5velox5cache15RawFileCacheKeyEEclERKS3_(ptr noundef nonnull align 1 dereferenceable(1) %ref.tmp, ptr noundef nonnull align 8 dereferenceable(16) %key)
  %and = and i64 %call, 3
  %conv = trunc i64 %and to i32
  store i32 %conv, ptr %shard, align 4
  %shards_ = getelementptr inbounds %"class.facebook::velox::cache::AsyncDataCache", ptr %this1, i32 0, i32 3
  %2 = load i32, ptr %shard, align 4
  %conv2 = sext i32 %2 to i64
  %call3 = call noundef nonnull align 8 dereferenceable(8) ptr @_ZNSt6vectorISt10unique_ptrIN8facebook5velox5cache10CacheShardESt14default_deleteIS4_EESaIS7_EEixEm(ptr noundef nonnull align 8 dereferenceable(24) %shards_, i64 noundef %conv2) #12
  %call4 = call noundef ptr @_ZNKSt10unique_ptrIN8facebook5velox5cache10CacheShardESt14default_deleteIS3_EEptEv(ptr noundef nonnull align 8 dereferenceable(8) %call3) #12
  call void @llvm.memcpy.p0.p0.i64(ptr align 8 %agg.tmp, ptr align 8 %key, i64 16, i1 false)
  %3 = load i64, ptr %size.addr, align 8
  %4 = load ptr, ptr %wait.addr, align 8
  %5 = getelementptr inbounds { i64, i64 }, ptr %agg.tmp, i32 0, i32 0
  %6 = load i64, ptr %5, align 8
  %7 = getelementptr inbounds { i64, i64 }, ptr %agg.tmp, i32 0, i32 1
  %8 = load i64, ptr %7, align 8
  call void @_ZN8facebook5velox5cache10CacheShard12findOrCreateENS1_15RawFileCacheKeyEmPN5folly10SemiFutureIbEE(ptr sret(%"class.facebook::velox::cache::CachePin") align 8 %agg.result, ptr noundef nonnull align 8 dereferenceable(280) %call4, i64 %6, i64 %8, i64 noundef %3, ptr noundef %4)
  ret void
}