; Function Attrs: mustprogress uwtable
define void @_ZN8facebook5velox5cache14AsyncDataCache12findOrCreateENS1_15RawFileCacheKeyEmPN5folly10SemiFutureIbEE(ptr noalias nocapture writeonly sret(%"class.facebook::velox::cache::CachePin") align 8 %agg.result, ptr nocapture noundef nonnull readonly align 8 dereferenceable(300) %this, i64 %key.coerce0, i64 %key.coerce1, i64 noundef %size, ptr noundef %wait) local_unnamed_addr #3 align 2 {
entry:
  %xor.i.i = xor i64 %key.coerce1, %key.coerce0
  %mul.i.i = mul i64 %xor.i.i, -7070675565921424023
  %shr.i.i = lshr i64 %mul.i.i, 47
  %0 = xor i64 %shr.i.i, %key.coerce0
  %xor2.i.i = xor i64 %0, %mul.i.i
  %mul3.i.i = mul i64 %xor2.i.i, -7070675565921424023
  %shr4.i.i = lshr i64 %mul3.i.i, 47
  %xor5.i.i = xor i64 %shr4.i.i, %mul3.i.i
  %conv = and i64 %xor5.i.i, 3
  %shards_ = getelementptr inbounds i8, ptr %this, i64 24
  %1 = load ptr, ptr %shards_, align 8
  %add.ptr.i = getelementptr inbounds %"class.std::unique_ptr.130", ptr %1, i64 %conv
  %2 = load ptr, ptr %add.ptr.i, align 8
  tail call void @_ZN8facebook5velox5cache10CacheShard12findOrCreateENS1_15RawFileCacheKeyEmPN5folly10SemiFutureIbEE(ptr sret(%"class.facebook::velox::cache::CachePin") align 8 %agg.result, ptr noundef nonnull align 8 dereferenceable(280) %2, i64 %key.coerce0, i64 %key.coerce1, i64 noundef %size, ptr noundef %wait)
  ret void
}